target datalayout = "e-m:e-p270:32:32-p271:32:32-p272:64:64-i64:64-i128:128-f80:128-n8:16:32:64-S128"
target triple = "x86_64-pc-linux-gnu"

%struct._GLFWlibrary = type { i32, %struct.GLFWallocator, %struct._GLFWplatform, %struct.anon.7, ptr, ptr, ptr, ptr, i32, i32, [16 x %struct._GLFWjoystick], ptr, i32, %struct._GLFWtls, %struct._GLFWtls, %struct._GLFWmutex, %struct.anon.16, %struct.anon.17, %struct.anon.18, %struct.anon.19, %struct.anon.20, %struct._GLFWlibraryWayland, %struct._GLFWlibraryX11, %struct._GLFWlibraryNull, %struct._GLFWlibraryGLX, %struct._GLFWlibraryLinux }
%struct.GLFWallocator = type { ptr, ptr, ptr, ptr }
%struct._GLFWplatform = type { i32, ptr, ptr, ptr, ptr, ptr, ptr, ptr, ptr, ptr, ptr, ptr, ptr, ptr, ptr, ptr, ptr, ptr, ptr, ptr, ptr, ptr, ptr, ptr, ptr, ptr, ptr, ptr, ptr, ptr, ptr, ptr, ptr, ptr, ptr, ptr, ptr, ptr, ptr, ptr, ptr, ptr, ptr, ptr, ptr, ptr, ptr, ptr, ptr, ptr, ptr, ptr, ptr, ptr, ptr, ptr, ptr, ptr, ptr, ptr, ptr, ptr, ptr, ptr, ptr, ptr, ptr, ptr, ptr, ptr, ptr, ptr }
%struct.anon.7 = type { %struct._GLFWinitconfig, %struct._GLFWfbconfig, %struct._GLFWwndconfig, %struct._GLFWctxconfig, i32 }
%struct._GLFWinitconfig = type { i32, i32, i32, ptr, %struct.anon.8, %struct.anon.9, %struct.anon.10 }
%struct.anon.8 = type { i32, i32 }
%struct.anon.9 = type { i32 }
%struct.anon.10 = type { i32 }
%struct._GLFWfbconfig = type { i32, i32, i32, i32, i32, i32, i32, i32, i32, i32, i32, i32, i32, i32, i32, i32, i64 }
%struct._GLFWwndconfig = type { i32, i32, i32, i32, ptr, i32, i32, i32, i32, i32, i32, i32, i32, i32, i32, i32, i32, %struct.anon.11, %struct.anon.12, %struct.anon.13, %struct.anon.14 }
%struct.anon.11 = type { [256 x i8] }
%struct.anon.12 = type { [256 x i8], [256 x i8] }
%struct.anon.13 = type { i32, i32 }
%struct.anon.14 = type { [256 x i8] }
%struct._GLFWctxconfig = type { i32, i32, i32, i32, i32, i32, i32, i32, i32, i32, ptr, %struct.anon.15 }
%struct.anon.15 = type { i32 }
%struct._GLFWjoystick = type { i32, i32, ptr, i32, ptr, i32, ptr, i32, [128 x i8], ptr, [33 x i8], ptr, %struct._GLFWjoystickLinux }
%struct._GLFWjoystickLinux = type { i32, [4096 x i8], [512 x i32], [64 x i32], [64 x %struct.input_absinfo], [4 x [2 x i32]] }
%struct.input_absinfo = type { i32, i32, i32, i32, i32, i32 }
%struct._GLFWtls = type { %struct._GLFWtlsPOSIX }
%struct._GLFWtlsPOSIX = type { i32, i32 }
%struct._GLFWmutex = type { %struct._GLFWmutexPOSIX }
%struct._GLFWmutexPOSIX = type { i32, %union.pthread_mutex_t }
%union.pthread_mutex_t = type { %struct.__pthread_mutex_s }
%struct.__pthread_mutex_s = type { i32, i32, i32, i32, i32, i16, i16, %struct.__pthread_internal_list }
%struct.__pthread_internal_list = type { ptr, ptr }
%struct.anon.16 = type { i64, %struct._GLFWtimerPOSIX }
%struct._GLFWtimerPOSIX = type { i32, i64 }
%struct.anon.17 = type { i32, ptr, i32, i32, i32, i32, i32, i32, i32, i32, i32, i32, i32, i32, i32, i32, i32, i32, i32, i32, ptr, ptr, ptr, ptr, ptr, ptr, ptr, ptr, ptr, ptr, ptr, ptr, ptr, ptr, ptr, ptr, ptr, ptr, ptr }
%struct.anon.18 = type { ptr, ptr, ptr, ptr, ptr, ptr, ptr, ptr }
%struct.anon.19 = type { i32, ptr, [2 x ptr], ptr, i32, i32, i32, i32, i32, i32, i32 }
%struct.anon.20 = type { ptr, ptr }
%struct._GLFWlibraryWayland = type { ptr, ptr, ptr, ptr, ptr, ptr, ptr, ptr, ptr, ptr, ptr, ptr, ptr, ptr, ptr, ptr, ptr, ptr, ptr, i32, ptr, ptr, ptr, ptr, i32, ptr, ptr, ptr, ptr, ptr, i32, i32, i32, i32, i32, i32, i32, ptr, [256 x i16], [349 x i16], [349 x [5 x i8]], %struct.anon.21, ptr, ptr, %struct.anon.22, %struct.anon.23, %struct.anon.24, %struct.anon.25 }
%struct.anon.21 = type { ptr, ptr, ptr, ptr, ptr, i32, i32, i32, i32, i32, i32, i32, ptr, ptr, ptr, ptr, ptr, ptr, ptr, ptr, ptr, ptr, ptr, ptr, ptr, ptr, ptr, ptr, ptr, ptr, ptr, ptr }
%struct.anon.22 = type { ptr, ptr, ptr, ptr, ptr, ptr, ptr, ptr, ptr, ptr, ptr, ptr, ptr, ptr, ptr, ptr, ptr, ptr, ptr, ptr }
%struct.anon.23 = type { ptr, ptr, ptr, ptr, ptr }
%struct.anon.24 = type { ptr, ptr, ptr, ptr }
%struct.anon.25 = type { ptr, ptr, ptr, i32, ptr, ptr, ptr, ptr, ptr, ptr, ptr, ptr, ptr, ptr, ptr, ptr, ptr, ptr, ptr, ptr, ptr, ptr, ptr, ptr, ptr, ptr, ptr, ptr, ptr }
%struct._GLFWlibraryX11 = type { ptr, i32, i64, float, float, i64, i64, i32, ptr, ptr, i32, ptr, ptr, [349 x [5 x i8]], [256 x i16], [349 x i16], double, double, ptr, [2 x i32], i64, i64, i64, i64, i64, i64, i64, i64, i64, i64, i64, i64, i64, i64, i64, i64, i64, i64, i64, i64, i64, i64, i64, i64, i64, i64, i64, i64, i64, i64, i64, i64, i64, i64, i64, i64, i64, i64, i64, i64, i64, i64, i64, i64, i64, i64, i64, i64, i64, i64, %struct.anon.26, %struct.anon.27, %struct.anon.28, %struct.anon.29, %struct.anon.30, %struct.anon.31, %struct.anon.32, %struct.anon.33, %struct.anon.34, %struct.anon.35, %struct.anon.36, %struct.anon.37, %struct.anon.38 }
%struct.anon.26 = type { ptr, i32, ptr, ptr, ptr, ptr, ptr, ptr, ptr, ptr, ptr, ptr, ptr, ptr, ptr, ptr, ptr, ptr, ptr, ptr, ptr, ptr, ptr, ptr, ptr, ptr, ptr, ptr, ptr, ptr, ptr, ptr, ptr, ptr, ptr, ptr, ptr, ptr, ptr, ptr, ptr, ptr, ptr, ptr, ptr, ptr, ptr, ptr, ptr, ptr, ptr, ptr, ptr, ptr, ptr, ptr, ptr, ptr, ptr, ptr, ptr, ptr, ptr, ptr, ptr, ptr, ptr, ptr, ptr, ptr, ptr, ptr, ptr, ptr, ptr, ptr, ptr, ptr, ptr, ptr, ptr, ptr, ptr, ptr, ptr, ptr, ptr, ptr }
%struct.anon.27 = type { ptr, ptr, ptr, ptr }
%struct.anon.28 = type { i32, ptr, i32, i32, i32, i32, i32, i32, ptr, ptr, ptr, ptr, ptr, ptr, ptr, ptr, ptr, ptr, ptr, ptr, ptr, ptr, ptr, ptr, ptr }
%struct.anon.29 = type { i32, i32, i32, i32, i32, i32, i32, i32, ptr, ptr, ptr, ptr, ptr, ptr, ptr, ptr, ptr }
%struct.anon.30 = type { i32, i32, i32, i32, i32 }
%struct.anon.31 = type { i32, i64, i64 }
%struct.anon.32 = type { ptr, ptr, ptr, ptr, ptr, ptr, ptr }
%struct.anon.33 = type { i32, ptr, i32, i32, ptr, ptr, ptr }
%struct.anon.34 = type { ptr, ptr }
%struct.anon.35 = type { i32, ptr, i32, i32, ptr, ptr, ptr, ptr }
%struct.anon.36 = type { i32, ptr, i32, i32, i32, i32, i32, ptr, ptr }
%struct.anon.37 = type { i32, ptr, i32, i32, i32, i32, ptr, ptr, ptr }
%struct.anon.38 = type { i32, ptr, i32, i32, i32, i32, ptr, ptr, ptr, ptr }
%struct._GLFWlibraryNull = type { i32, i32, ptr, ptr, [121 x i16], [349 x i8] }
%struct._GLFWlibraryGLX = type { i32, i32, i32, i32, ptr, ptr, ptr, ptr, ptr, ptr, ptr, ptr, ptr, ptr, ptr, ptr, ptr, ptr, ptr, ptr, ptr, ptr, ptr, ptr, i32, i32, i32, i32, i32, i32, i32, i32, i32, i32, i32, i32 }
%struct._GLFWlibraryLinux = type { i32, i32, %struct.re_pattern_buffer, i32, i32 }
%struct.re_pattern_buffer = type { ptr, i64, i64, i64, ptr, ptr, i64, i8 }

@_glfw = external global %struct._GLFWlibrary, align 8

; Function Attrs: nounwind uwtable
define hidden ptr @_glfwAllocJoystick(ptr noundef %0, ptr noundef %1, i32 noundef %2, i32 noundef %3, i32 noundef %4) #0 {
  %6 = alloca ptr, align 8
  %7 = alloca ptr, align 8
  %8 = alloca ptr, align 8
  %9 = alloca i32, align 4
  %10 = alloca i32, align 4
  %11 = alloca i32, align 4
  %12 = alloca i32, align 4
  %13 = alloca ptr, align 8
  %14 = alloca i32, align 4
  store ptr %0, ptr %7, align 8, !tbaa !159
  store ptr %1, ptr %8, align 8, !tbaa !159
  store i32 %2, ptr %9, align 4, !tbaa !8
  store i32 %3, ptr %10, align 4, !tbaa !8
  store i32 %4, ptr %11, align 4, !tbaa !8
  call void @llvm.lifetime.start.p0(i64 4, ptr %12) #8
  call void @llvm.lifetime.start.p0(i64 8, ptr %13) #8
  store i32 0, ptr %12, align 4, !tbaa !8
  br label %15

15:                                               ; preds = %27, %5
  %16 = load i32, ptr %12, align 4, !tbaa !8
  %17 = icmp sle i32 %16, 15
  br i1 %17, label %18, label %30

18:                                               ; preds = %15
  %19 = load i32, ptr %12, align 4, !tbaa !8
  %20 = sext i32 %19 to i64
  %21 = getelementptr inbounds [16 x %struct._GLFWjoystick], ptr getelementptr inbounds nuw (%struct._GLFWlibrary, ptr @_glfw, i32 0, i32 10), i64 0, i64 %20
  %22 = getelementptr inbounds nuw %struct._GLFWjoystick, ptr %21, i32 0, i32 0
  %23 = load i32, ptr %22, align 8, !tbaa !173
  %24 = icmp ne i32 %23, 0
  br i1 %24, label %26, label %25

25:                                               ; preds = %18
  br label %30

26:                                               ; preds = %18
  br label %27

27:                                               ; preds = %26
  %28 = load i32, ptr %12, align 4, !tbaa !8
  %29 = add nsw i32 %28, 1
  store i32 %29, ptr %12, align 4, !tbaa !8
  br label %15

30:                                               ; preds = %25, %15
  %31 = load i32, ptr %12, align 4, !tbaa !8
  %32 = icmp sgt i32 %31, 15
  br i1 %32, label %33, label %34

33:                                               ; preds = %30
  store ptr null, ptr %6, align 8
  store i32 1, ptr %14, align 4
  br label %83

34:                                               ; preds = %30
  %35 = load i32, ptr %12, align 4, !tbaa !8
  %36 = sext i32 %35 to i64
  %37 = getelementptr inbounds %struct._GLFWjoystick, ptr getelementptr inbounds nuw (%struct._GLFWlibrary, ptr @_glfw, i32 0, i32 10), i64 %36
  store ptr %37, ptr %13, align 8, !tbaa !68
  %38 = load ptr, ptr %13, align 8, !tbaa !68
  %39 = getelementptr inbounds nuw %struct._GLFWjoystick, ptr %38, i32 0, i32 0
  store i32 1, ptr %39, align 8, !tbaa !173
  %40 = load i32, ptr %9, align 4, !tbaa !8
  %41 = sext i32 %40 to i64
  %42 = call ptr @_glfw_calloc(i64 noundef %41, i64 noundef 4)
  %43 = load ptr, ptr %13, align 8, !tbaa !68
  %44 = getelementptr inbounds nuw %struct._GLFWjoystick, ptr %43, i32 0, i32 2
  store ptr %42, ptr %44, align 8, !tbaa !152
  %45 = load i32, ptr %10, align 4, !tbaa !8
  %46 = sext i32 %45 to i64
  %47 = load i32, ptr %11, align 4, !tbaa !8
  %48 = sext i32 %47 to i64
  %49 = mul i64 %48, 4
  %50 = add i64 %46, %49
  %51 = call ptr @_glfw_calloc(i64 noundef %50, i64 noundef 1)
  %52 = load ptr, ptr %13, align 8, !tbaa !68
  %53 = getelementptr inbounds nuw %struct._GLFWjoystick, ptr %52, i32 0, i32 4
  store ptr %51, ptr %53, align 8, !tbaa !153
  %54 = load i32, ptr %11, align 4, !tbaa !8
  %55 = sext i32 %54 to i64
  %56 = call ptr @_glfw_calloc(i64 noundef %55, i64 noundef 1)
  %57 = load ptr, ptr %13, align 8, !tbaa !68
  %58 = getelementptr inbounds nuw %struct._GLFWjoystick, ptr %57, i32 0, i32 6
  store ptr %56, ptr %58, align 8, !tbaa !155
  %59 = load i32, ptr %9, align 4, !tbaa !8
  %60 = load ptr, ptr %13, align 8, !tbaa !68
  %61 = getelementptr inbounds nuw %struct._GLFWjoystick, ptr %60, i32 0, i32 3
  store i32 %59, ptr %61, align 8, !tbaa !174
  %62 = load i32, ptr %10, align 4, !tbaa !8
  %63 = load ptr, ptr %13, align 8, !tbaa !68
  %64 = getelementptr inbounds nuw %struct._GLFWjoystick, ptr %63, i32 0, i32 5
  store i32 %62, ptr %64, align 8, !tbaa !154
  %65 = load i32, ptr %11, align 4, !tbaa !8
  %66 = load ptr, ptr %13, align 8, !tbaa !68
  %67 = getelementptr inbounds nuw %struct._GLFWjoystick, ptr %66, i32 0, i32 7
  store i32 %65, ptr %67, align 8, !tbaa !175
  %68 = load ptr, ptr %13, align 8, !tbaa !68
  %69 = getelementptr inbounds nuw %struct._GLFWjoystick, ptr %68, i32 0, i32 8
  %70 = getelementptr inbounds [128 x i8], ptr %69, i64 0, i64 0
  %71 = load ptr, ptr %7, align 8, !tbaa !159
  %72 = call ptr @strncpy(ptr noundef %70, ptr noundef %71, i64 noundef 127) #8
  %73 = load ptr, ptr %13, align 8, !tbaa !68
  %74 = getelementptr inbounds nuw %struct._GLFWjoystick, ptr %73, i32 0, i32 10
  %75 = getelementptr inbounds [33 x i8], ptr %74, i64 0, i64 0
  %76 = load ptr, ptr %8, align 8, !tbaa !159
  %77 = call ptr @strncpy(ptr noundef %75, ptr noundef %76, i64 noundef 32) #8
  %78 = load ptr, ptr %13, align 8, !tbaa !68
  %79 = call ptr @findValidMapping(ptr noundef %78)
  %80 = load ptr, ptr %13, align 8, !tbaa !68
  %81 = getelementptr inbounds nuw %struct._GLFWjoystick, ptr %80, i32 0, i32 11
  store ptr %79, ptr %81, align 8, !tbaa !176
  %82 = load ptr, ptr %13, align 8, !tbaa !68
  store ptr %82, ptr %6, align 8
  store i32 1, ptr %14, align 4
  br label %83

83:                                               ; preds = %34, %33
  call void @llvm.lifetime.end.p0(i64 8, ptr %13) #8
  call void @llvm.lifetime.end.p0(i64 4, ptr %12) #8
  %84 = load ptr, ptr %6, align 8
  ret ptr %84
}