; Function Attrs: nounwind uwtable
define hidden noundef ptr @_glfwAllocJoystick(ptr noundef readonly captures(none) %0, ptr noundef readonly captures(none) %1, i32 noundef %2, i32 noundef %3, i32 noundef %4) local_unnamed_addr #0 {
  br label %6

6:                                                ; preds = %5, %9
  %indvars.iv = phi i64 [ 0, %5 ], [ %indvars.iv.next, %9 ]
  %7 = getelementptr inbounds nuw [16 x %struct._GLFWjoystick], ptr getelementptr inbounds nuw (i8, ptr @_glfw, i64 1936), i64 0, i64 %indvars.iv
  %8 = load i32, ptr %7, align 8, !tbaa !163
  %.not = icmp eq i32 %8, 0
  br i1 %.not, label %10, label %9

9:                                                ; preds = %6
  %indvars.iv.next = add nuw nsw i64 %indvars.iv, 1
  %exitcond.not = icmp eq i64 %indvars.iv.next, 16
  br i1 %exitcond.not, label %.thread, label %6

10:                                               ; preds = %6
  %11 = and i64 %indvars.iv, 4294967295
  %12 = getelementptr inbounds nuw %struct._GLFWjoystick, ptr getelementptr inbounds nuw (i8, ptr @_glfw, i64 1936), i64 %11
  store i32 1, ptr %12, align 8, !tbaa !163
  %13 = sext i32 %2 to i64
  %14 = tail call ptr @_glfw_calloc(i64 noundef %13, i64 noundef 4) #12
  %15 = getelementptr inbounds nuw i8, ptr %12, i64 8
  store ptr %14, ptr %15, align 8, !tbaa !144
  %16 = sext i32 %3 to i64
  %17 = sext i32 %4 to i64
  %18 = shl nsw i64 %17, 2
  %19 = add nsw i64 %18, %16
  %20 = tail call ptr @_glfw_calloc(i64 noundef %19, i64 noundef 1) #12
  %21 = getelementptr inbounds nuw i8, ptr %12, i64 24
  store ptr %20, ptr %21, align 8, !tbaa !146
  %22 = tail call ptr @_glfw_calloc(i64 noundef %17, i64 noundef 1) #12
  %23 = getelementptr inbounds nuw i8, ptr %12, i64 40
  store ptr %22, ptr %23, align 8, !tbaa !148
  %24 = getelementptr inbounds nuw i8, ptr %12, i64 16
  store i32 %2, ptr %24, align 8, !tbaa !164
  %25 = getelementptr inbounds nuw i8, ptr %12, i64 32
  store i32 %3, ptr %25, align 8, !tbaa !147
  %26 = getelementptr inbounds nuw i8, ptr %12, i64 48
  store i32 %4, ptr %26, align 8, !tbaa !165
  %27 = getelementptr inbounds nuw i8, ptr %12, i64 52
  %28 = tail call ptr @strncpy(ptr noundef nonnull dereferenceable(1) %27, ptr noundef nonnull dereferenceable(1) %0, i64 noundef 127) #12
  %29 = getelementptr inbounds nuw i8, ptr %12, i64 192
  %30 = tail call ptr @strncpy(ptr noundef nonnull dereferenceable(1) %29, ptr noundef nonnull dereferenceable(1) %1, i64 noundef 32) #12
  %31 = tail call fastcc ptr @findValidMapping(ptr noundef nonnull %12)
  %32 = getelementptr inbounds nuw i8, ptr %12, i64 232
  store ptr %31, ptr %32, align 8, !tbaa !166
  br label %.thread

.thread:                                          ; preds = %9, %10
  %.0 = phi ptr [ %12, %10 ], [ null, %9 ]
  ret ptr %.0
}